target datalayout = "e-m:e-p270:32:32-p271:32:32-p272:64:64-i64:64-i128:128-f80:128-n8:16:32:64-S128"
target triple = "x86_64-pc-linux-gnu"

%struct.dump_config = type { i64, i64, i64, ptr, ptr, i64, i64, i64, i64, i8, i32, i64, i64, i64, [4096 x i8] }
%struct.rbimpl_size_mul_overflow_tag = type { i8, i64 }

@rb_eIOError = external global i64, align 8
@.str.55 = private unnamed_addr constant [12 x i8] c"full buffer\00", align 1
@.str.83 = private unnamed_addr constant [4 x i8] c"%zu\00", align 1

; Function Attrs: inlinehint nounwind sspstrong willreturn memory(none) uwtable
define internal { i8, i64 } @rbimpl_size_mul_overflow(i64 noundef %0, i64 noundef %1) #4 {
  %3 = alloca %struct.rbimpl_size_mul_overflow_tag, align 8
  %4 = alloca i64, align 8
  %5 = alloca i64, align 8
  store i64 %0, ptr %4, align 8, !tbaa !6
  store i64 %1, ptr %5, align 8, !tbaa !6
  call void @llvm.memset.p0.i64(ptr align 8 %3, i8 0, i64 16, i1 false)
  %6 = load i64, ptr %4, align 8, !tbaa !6
  %7 = load i64, ptr %5, align 8, !tbaa !6
  %8 = getelementptr inbounds nuw %struct.rbimpl_size_mul_overflow_tag, ptr %3, i32 0, i32 1
  %9 = call { i64, i1 } @llvm.umul.with.overflow.i64(i64 %6, i64 %7)
  %10 = extractvalue { i64, i1 } %9, 1
  %11 = extractvalue { i64, i1 } %9, 0
  store i64 %11, ptr %8, align 8
  %12 = getelementptr inbounds nuw %struct.rbimpl_size_mul_overflow_tag, ptr %3, i32 0, i32 0
  %13 = zext i1 %10 to i8
  store i8 %13, ptr %12, align 8, !tbaa !94
  %14 = load { i8, i64 }, ptr %3, align 8
  ret { i8, i64 } %14
}

; Function Attrs: alwaysinline nounwind
define internal ptr @memmove.inline(ptr nonnull %0, ptr nonnull %1, i64 %2) #12 {
  %4 = alloca ptr, align 8
  %5 = alloca ptr, align 8
  %6 = alloca i64, align 8
  store ptr %0, ptr %4, align 8, !tbaa !93
  store ptr %1, ptr %5, align 8, !tbaa !93
  store i64 %2, ptr %6, align 8, !tbaa !6
  %7 = load ptr, ptr %4, align 8, !tbaa !93
  %8 = load ptr, ptr %5, align 8, !tbaa !93
  %9 = load i64, ptr %6, align 8, !tbaa !6
  %10 = load ptr, ptr %4, align 8, !tbaa !93
  %11 = call i64 @llvm.objectsize.i64.p0(ptr %10, i1 false, i1 true, i1 false)
  %12 = call ptr @__memmove_chk(ptr noundef %7, ptr noundef %8, i64 noundef %9, i64 noundef %11) #21
  ret ptr %12
}

; Function Attrs: inlinehint nounwind sspstrong uwtable
define internal i64 @rbimpl_size_mul_or_raise(i64 noundef %0, i64 noundef %1) #6 {
  %3 = alloca i64, align 8
  %4 = alloca i64, align 8
  %5 = alloca %struct.rbimpl_size_mul_overflow_tag, align 8
  store i64 %0, ptr %3, align 8, !tbaa !6
  store i64 %1, ptr %4, align 8, !tbaa !6
  call void @llvm.lifetime.start.p0(i64 16, ptr %5) #21
  %6 = load i64, ptr %3, align 8, !tbaa !6
  %7 = load i64, ptr %4, align 8, !tbaa !6
  %8 = call { i8, i64 } @rbimpl_size_mul_overflow(i64 noundef %6, i64 noundef %7) #22
  %9 = getelementptr inbounds nuw { i8, i64 }, ptr %5, i32 0, i32 0
  %10 = extractvalue { i8, i64 } %8, 0
  store i8 %10, ptr %9, align 8
  %11 = getelementptr inbounds nuw { i8, i64 }, ptr %5, i32 0, i32 1
  %12 = extractvalue { i8, i64 } %8, 1
  store i64 %12, ptr %11, align 8
  %13 = getelementptr inbounds nuw %struct.rbimpl_size_mul_overflow_tag, ptr %5, i32 0, i32 0
  %14 = load i8, ptr %13, align 8, !tbaa !94, !range !96, !noundef !97
  %15 = trunc i8 %14 to i1
  %16 = xor i1 %15, true
  %17 = xor i1 %16, true
  %18 = xor i1 %17, true
  %19 = zext i1 %18 to i32
  %20 = sext i32 %19 to i64
  %21 = call i64 @llvm.expect.i64(i64 %20, i64 1)
  %22 = icmp ne i64 %21, 0
  br i1 %22, label %23, label %26

23:                                               ; preds = %2
  %24 = getelementptr inbounds nuw %struct.rbimpl_size_mul_overflow_tag, ptr %5, i32 0, i32 1
  %25 = load i64, ptr %24, align 8, !tbaa !98
  call void @llvm.lifetime.end.p0(i64 16, ptr %5) #21
  ret i64 %25

26:                                               ; preds = %2
  %27 = load i64, ptr %3, align 8, !tbaa !6
  %28 = load i64, ptr %4, align 8, !tbaa !6
  call void @ruby_malloc_size_overflow(i64 noundef %27, i64 noundef %28) #26
  unreachable
}

; Function Attrs: nounwind sspstrong uwtable
define internal void @dump_flush(ptr noundef %0) #0 {
  %2 = alloca ptr, align 8
  %3 = alloca i64, align 8
  %4 = alloca i32, align 4
  store ptr %0, ptr %2, align 8, !tbaa !18
  %5 = load ptr, ptr %2, align 8, !tbaa !18
  %6 = getelementptr inbounds nuw %struct.dump_config, ptr %5, i32 0, i32 13
  %7 = load i64, ptr %6, align 8, !tbaa !21
  %8 = icmp ne i64 %7, 0
  br i1 %8, label %9, label %75

9:                                                ; preds = %1
  %10 = load ptr, ptr %2, align 8, !tbaa !18
  %11 = getelementptr inbounds nuw %struct.dump_config, ptr %10, i32 0, i32 3
  %12 = load ptr, ptr %11, align 8, !tbaa !22
  %13 = icmp ne ptr %12, null
  br i1 %13, label %14, label %55

14:                                               ; preds = %9
  call void @llvm.lifetime.start.p0(i64 8, ptr %3) #21
  %15 = load ptr, ptr %2, align 8, !tbaa !18
  %16 = getelementptr inbounds nuw %struct.dump_config, ptr %15, i32 0, i32 14
  %17 = getelementptr inbounds [4096 x i8], ptr %16, i64 0, i64 0
  %18 = load ptr, ptr %2, align 8, !tbaa !18
  %19 = getelementptr inbounds nuw %struct.dump_config, ptr %18, i32 0, i32 13
  %20 = load i64, ptr %19, align 8, !tbaa !21
  %21 = load ptr, ptr %2, align 8, !tbaa !18
  %22 = getelementptr inbounds nuw %struct.dump_config, ptr %21, i32 0, i32 3
  %23 = load ptr, ptr %22, align 8, !tbaa !22
  %24 = call i64 @fwrite(ptr noundef %17, i64 noundef 1, i64 noundef %20, ptr noundef %23)
  store i64 %24, ptr %3, align 8, !tbaa !6
  %25 = load i64, ptr %3, align 8, !tbaa !6
  %26 = load ptr, ptr %2, align 8, !tbaa !18
  %27 = getelementptr inbounds nuw %struct.dump_config, ptr %26, i32 0, i32 13
  %28 = load i64, ptr %27, align 8, !tbaa !21
  %29 = icmp ult i64 %25, %28
  br i1 %29, label %30, label %51

30:                                               ; preds = %14
  %31 = load ptr, ptr %2, align 8, !tbaa !18
  %32 = getelementptr inbounds nuw %struct.dump_config, ptr %31, i32 0, i32 14
  %33 = getelementptr inbounds [4096 x i8], ptr %32, i64 0, i64 0
  %34 = load ptr, ptr %2, align 8, !tbaa !18
  %35 = getelementptr inbounds nuw %struct.dump_config, ptr %34, i32 0, i32 14
  %36 = getelementptr inbounds [4096 x i8], ptr %35, i64 0, i64 0
  %37 = load i64, ptr %3, align 8, !tbaa !6
  %38 = getelementptr inbounds nuw i8, ptr %36, i64 %37
  %39 = load ptr, ptr %2, align 8, !tbaa !18
  %40 = getelementptr inbounds nuw %struct.dump_config, ptr %39, i32 0, i32 13
  %41 = load i64, ptr %40, align 8, !tbaa !21
  %42 = load i64, ptr %3, align 8, !tbaa !6
  %43 = sub i64 %41, %42
  %44 = call i64 @rbimpl_size_mul_or_raise(i64 noundef 1, i64 noundef %43)
  %45 = call ptr @memmove.inline(ptr noundef %33, ptr noundef %38, i64 noundef %44) #21
  %46 = load i64, ptr %3, align 8, !tbaa !6
  %47 = load ptr, ptr %2, align 8, !tbaa !18
  %48 = getelementptr inbounds nuw %struct.dump_config, ptr %47, i32 0, i32 13
  %49 = load i64, ptr %48, align 8, !tbaa !21
  %50 = sub i64 %49, %46
  store i64 %50, ptr %48, align 8, !tbaa !21
  store i32 1, ptr %4, align 4
  br label %52

51:                                               ; preds = %14
  store i32 0, ptr %4, align 4
  br label %52

52:                                               ; preds = %51, %30
  call void @llvm.lifetime.end.p0(i64 8, ptr %3) #21
  %53 = load i32, ptr %4, align 4
  switch i32 %53, label %76 [
    i32 0, label %54
    i32 1, label %75
  ]

54:                                               ; preds = %52
  br label %72

55:                                               ; preds = %9
  %56 = load ptr, ptr %2, align 8, !tbaa !18
  %57 = getelementptr inbounds nuw %struct.dump_config, ptr %56, i32 0, i32 2
  %58 = load i64, ptr %57, align 8, !tbaa !23
  %59 = icmp ne i64 %58, 0
  br i1 %59, label %60, label %71

60:                                               ; preds = %55
  %61 = load ptr, ptr %2, align 8, !tbaa !18
  %62 = getelementptr inbounds nuw %struct.dump_config, ptr %61, i32 0, i32 2
  %63 = load i64, ptr %62, align 8, !tbaa !23
  %64 = load ptr, ptr %2, align 8, !tbaa !18
  %65 = getelementptr inbounds nuw %struct.dump_config, ptr %64, i32 0, i32 14
  %66 = getelementptr inbounds [4096 x i8], ptr %65, i64 0, i64 0
  %67 = load ptr, ptr %2, align 8, !tbaa !18
  %68 = getelementptr inbounds nuw %struct.dump_config, ptr %67, i32 0, i32 13
  %69 = load i64, ptr %68, align 8, !tbaa !21
  %70 = call i64 @rb_str_cat(i64 noundef %63, ptr noundef %66, i64 noundef %69)
  br label %71

71:                                               ; preds = %60, %55
  br label %72

72:                                               ; preds = %71, %54
  %73 = load ptr, ptr %2, align 8, !tbaa !18
  %74 = getelementptr inbounds nuw %struct.dump_config, ptr %73, i32 0, i32 13
  store i64 0, ptr %74, align 8, !tbaa !21
  br label %75

75:                                               ; preds = %52, %72, %1
  ret void

76:                                               ; preds = %52
  unreachable
}

; Function Attrs: inlinehint nounwind sspstrong uwtable
define internal void @buffer_ensure_capa(ptr noundef %0, i64 noundef %1) #6 {
  %3 = alloca ptr, align 8
  %4 = alloca i64, align 8
  store ptr %0, ptr %3, align 8, !tbaa !18
  store i64 %1, ptr %4, align 8, !tbaa !6
  %5 = load i64, ptr %4, align 8, !tbaa !6
  %6 = load ptr, ptr %3, align 8, !tbaa !18
  %7 = getelementptr inbounds nuw %struct.dump_config, ptr %6, i32 0, i32 13
  %8 = load i64, ptr %7, align 8, !tbaa !21
  %9 = add i64 %5, %8
  %10 = icmp uge i64 %9, 4096
  br i1 %10, label %11, label %22

11:                                               ; preds = %2
  %12 = load ptr, ptr %3, align 8, !tbaa !18
  call void @dump_flush(ptr noundef %12)
  %13 = load i64, ptr %4, align 8, !tbaa !6
  %14 = load ptr, ptr %3, align 8, !tbaa !18
  %15 = getelementptr inbounds nuw %struct.dump_config, ptr %14, i32 0, i32 13
  %16 = load i64, ptr %15, align 8, !tbaa !21
  %17 = add i64 %13, %16
  %18 = icmp uge i64 %17, 4096
  br i1 %18, label %19, label %21

19:                                               ; preds = %11
  %20 = load i64, ptr @rb_eIOError, align 8, !tbaa !6
  call void (i64, ptr, ...) @rb_raise(i64 noundef %20, ptr noundef @.str.55) #26
  unreachable

21:                                               ; preds = %11
  br label %22

22:                                               ; preds = %21, %2
  ret void
}

; Function Attrs: nounwind sspstrong uwtable
define internal void @dump_append_sizet(ptr noundef %0, i64 noundef %1) #0 {
  %3 = alloca ptr, align 8
  %4 = alloca i64, align 8
  %5 = alloca i32, align 4
  %6 = alloca i64, align 8
  store ptr %0, ptr %3, align 8, !tbaa !18
  store i64 %1, ptr %4, align 8, !tbaa !6
  call void @llvm.lifetime.start.p0(i64 4, ptr %5) #21
  store i32 21, ptr %5, align 4, !tbaa !70
  %7 = load ptr, ptr %3, align 8, !tbaa !18
  call void @buffer_ensure_capa(ptr noundef %7, i64 noundef 21)
  call void @llvm.lifetime.start.p0(i64 8, ptr %6) #21
  %8 = load ptr, ptr %3, align 8, !tbaa !18
  %9 = getelementptr inbounds nuw %struct.dump_config, ptr %8, i32 0, i32 14
  %10 = getelementptr inbounds [4096 x i8], ptr %9, i64 0, i64 0
  %11 = load ptr, ptr %3, align 8, !tbaa !18
  %12 = getelementptr inbounds nuw %struct.dump_config, ptr %11, i32 0, i32 13
  %13 = load i64, ptr %12, align 8, !tbaa !21
  %14 = getelementptr inbounds nuw i8, ptr %10, i64 %13
  %15 = load i64, ptr %4, align 8, !tbaa !6
  %16 = call i32 (ptr, i64, ptr, ...) @ruby_snprintf(ptr noundef %14, i64 noundef 21, ptr noundef @.str.83, i64 noundef %15)
  %17 = sext i32 %16 to i64
  store i64 %17, ptr %6, align 8, !tbaa !6
  %18 = load i64, ptr %6, align 8, !tbaa !6
  %19 = load ptr, ptr %3, align 8, !tbaa !18
  %20 = getelementptr inbounds nuw %struct.dump_config, ptr %19, i32 0, i32 13
  %21 = load i64, ptr %20, align 8, !tbaa !21
  %22 = add i64 %21, %18
  store i64 %22, ptr %20, align 8, !tbaa !21
  call void @llvm.lifetime.end.p0(i64 8, ptr %6) #21
  call void @llvm.lifetime.end.p0(i64 4, ptr %5) #21
  ret void
}